target datalayout = "e-m:e-p270:32:32-p271:32:32-p272:64:64-i64:64-i128:128-f80:128-n8:16:32:64-S128"
target triple = "x86_64-pc-linux-gnu"

%struct.uv__io_s = type { ptr, [2 x ptr], [2 x ptr], i32, i32, i32 }
%struct.uv_udp_s = type { ptr, ptr, i32, ptr, [2 x ptr], %union.anon.1, ptr, i32, i64, i64, ptr, ptr, %struct.uv__io_s, [2 x ptr], [2 x ptr] }
%union.anon.1 = type { [4 x ptr] }

; Function Attrs: nounwind uwtable
define dso_local i32 @uv_udp_init_ex(ptr noundef %0, ptr noundef %1, i32 noundef %2) #0 {
  %4 = alloca i32, align 4
  %5 = alloca ptr, align 8
  %6 = alloca ptr, align 8
  %7 = alloca i32, align 4
  %8 = alloca i32, align 4
  %9 = alloca i32, align 4
  %10 = alloca i32, align 4
  %11 = alloca i32, align 4
  store ptr %0, ptr %5, align 8, !tbaa !52
  store ptr %1, ptr %6, align 8, !tbaa !53
  store i32 %2, ptr %7, align 4, !tbaa !15
  call void @llvm.lifetime.start.p0(i64 4, ptr %8) #13
  call void @llvm.lifetime.start.p0(i64 4, ptr %9) #13
  call void @llvm.lifetime.start.p0(i64 4, ptr %10) #13
  %12 = load i32, ptr %7, align 4, !tbaa !15
  %13 = and i32 %12, 255
  store i32 %13, ptr %9, align 4, !tbaa !15
  %14 = load i32, ptr %9, align 4, !tbaa !15
  %15 = icmp ne i32 %14, 2
  br i1 %15, label %16, label %23

16:                                               ; preds = %3
  %17 = load i32, ptr %9, align 4, !tbaa !15
  %18 = icmp ne i32 %17, 10
  br i1 %18, label %19, label %23

19:                                               ; preds = %16
  %20 = load i32, ptr %9, align 4, !tbaa !15
  %21 = icmp ne i32 %20, 0
  br i1 %21, label %22, label %23

22:                                               ; preds = %19
  store i32 -22, ptr %4, align 4
  store i32 1, ptr %11, align 4
  br label %50

23:                                               ; preds = %19, %16, %3
  %24 = load i32, ptr %7, align 4, !tbaa !15
  %25 = and i32 %24, -256
  store i32 %25, ptr %8, align 4, !tbaa !15
  %26 = load i32, ptr %8, align 4, !tbaa !15
  %27 = and i32 %26, -257
  %28 = icmp ne i32 %27, 0
  br i1 %28, label %29, label %30

29:                                               ; preds = %23
  store i32 -22, ptr %4, align 4
  store i32 1, ptr %11, align 4
  br label %50

30:                                               ; preds = %23
  %31 = load ptr, ptr %5, align 8, !tbaa !52
  %32 = load ptr, ptr %6, align 8, !tbaa !53
  %33 = load i32, ptr %7, align 4, !tbaa !15
  %34 = load i32, ptr %9, align 4, !tbaa !15
  %35 = call i32 @uv__udp_init_ex(ptr noundef %31, ptr noundef %32, i32 noundef %33, i32 noundef %34)
  store i32 %35, ptr %10, align 4, !tbaa !15
  %36 = load i32, ptr %10, align 4, !tbaa !15
  %37 = icmp eq i32 %36, 0
  br i1 %37, label %38, label %48

38:                                               ; preds = %30
  %39 = load i32, ptr %8, align 4, !tbaa !15
  %40 = and i32 %39, 256
  %41 = icmp ne i32 %40, 0
  br i1 %41, label %42, label %47

42:                                               ; preds = %38
  %43 = load ptr, ptr %6, align 8, !tbaa !53
  %44 = getelementptr inbounds nuw %struct.uv_udp_s, ptr %43, i32 0, i32 7
  %45 = load i32, ptr %44, align 8, !tbaa !55
  %46 = or i32 %45, 67108864
  store i32 %46, ptr %44, align 8, !tbaa !55
  br label %47

47:                                               ; preds = %42, %38
  br label %48

48:                                               ; preds = %47, %30
  %49 = load i32, ptr %10, align 4, !tbaa !15
  store i32 %49, ptr %4, align 4
  store i32 1, ptr %11, align 4
  br label %50

50:                                               ; preds = %48, %29, %22
  call void @llvm.lifetime.end.p0(i64 4, ptr %10) #13
  call void @llvm.lifetime.end.p0(i64 4, ptr %9) #13
  call void @llvm.lifetime.end.p0(i64 4, ptr %8) #13
  %51 = load i32, ptr %4, align 4
  ret i32 %51
}