; Function Attrs: nounwind uwtable
define dso_local i32 @uv_udp_init_ex(ptr noundef %0, ptr noundef %1, i32 noundef %2) local_unnamed_addr #0 {
  %4 = and i32 %2, 255
  %5 = and i32 %2, 247
  %or.cond = icmp eq i32 %5, 2
  %6 = icmp eq i32 %4, 0
  %or.cond3.not21 = or i1 %or.cond, %6
  %.not = icmp ult i32 %2, 512
  %or.cond19 = and i1 %.not, %or.cond3.not21
  br i1 %or.cond19, label %7, label %14

7:                                                ; preds = %3
  %8 = tail call i32 @uv__udp_init_ex(ptr noundef %0, ptr noundef %1, i32 noundef %2, i32 noundef %4) #26
  %9 = icmp ne i32 %8, 0
  %.not17 = icmp samesign ult i32 %2, 256
  %or.cond18 = or i1 %.not17, %9
  br i1 %or.cond18, label %14, label %10

10:                                               ; preds = %7
  %11 = getelementptr inbounds nuw i8, ptr %1, i64 88
  %12 = load i32, ptr %11, align 8, !tbaa !36
  %13 = or i32 %12, 67108864
  store i32 %13, ptr %11, align 8, !tbaa !36
  br label %14

14:                                               ; preds = %7, %10, %3
  %.0 = phi i32 [ -22, %3 ], [ 0, %10 ], [ %8, %7 ]
  ret i32 %.0
}